target datalayout = "e-m:e-p270:32:32-p271:32:32-p272:64:64-i64:64-i128:128-f80:128-n8:16:32:64-S128"
target triple = "x86_64-pc-linux-gnu"

%struct.regmatch_t = type { i32, i32 }
%"class.testing::internal::RE" = type { ptr, i8, %struct.re_pattern_buffer, %struct.re_pattern_buffer }
%struct.re_pattern_buffer = type { ptr, i64, i64, i64, ptr, ptr, i64, i8 }

; Function Attrs: mustprogress uwtable
define hidden noundef zeroext i1 @_ZN7testing8internal2RE9FullMatchEPKcRKS1_(ptr noundef %0, ptr noundef nonnull align 8 dereferenceable(144) %1) #4 align 2 {
  %3 = alloca i1, align 1
  %4 = alloca ptr, align 8
  %5 = alloca ptr, align 8
  %6 = alloca %struct.regmatch_t, align 4
  store ptr %0, ptr %4, align 8
  store ptr %1, ptr %5, align 8
  %7 = load ptr, ptr %5, align 8
  %8 = getelementptr inbounds nuw %"class.testing::internal::RE", ptr %7, i32 0, i32 1
  %9 = load i8, ptr %8, align 8, !range !5, !noundef !6
  %10 = trunc i8 %9 to i1
  br i1 %10, label %12, label %11

11:                                               ; preds = %2
  store i1 false, ptr %3, align 1
  br label %18

12:                                               ; preds = %2
  call void @llvm.lifetime.start.p0(i64 8, ptr %6) #3
  %13 = load ptr, ptr %5, align 8
  %14 = getelementptr inbounds nuw %"class.testing::internal::RE", ptr %13, i32 0, i32 2
  %15 = load ptr, ptr %4, align 8
  %16 = call i32 @regexec(ptr noundef %14, ptr noundef %15, i64 noundef 1, ptr noundef %6, i32 noundef 0)
  %17 = icmp eq i32 %16, 0
  store i1 %17, ptr %3, align 1
  call void @llvm.lifetime.end.p0(i64 8, ptr %6) #3
  br label %18

18:                                               ; preds = %12, %11
  %19 = load i1, ptr %3, align 1
  ret i1 %19
}